; ModuleID = '31/809.c'
source_filename = "31/809.c"
target datalayout = "e-m:e-p270:32:32-p271:32:32-p272:64:64-i64:64-f80:128-n8:16:32:64-S128"
target triple = "x86_64-pc-linux-gnu"

%struct.student = type { [20 x i8], [20 x i8], i8, i32, double, [20 x i8], %struct.student*, %struct.student* }

@.str = private unnamed_addr constant [3 x i8] c"%s\00", align 1
@.str.1 = private unnamed_addr constant [16 x i8] c"%s %c %d %lf %s\00", align 1
@.str.2 = private unnamed_addr constant [19 x i8] c"%s %s %c %d %d %s\0A\00", align 1
@.str.3 = private unnamed_addr constant [22 x i8] c"%s %s %c %d %.1lf %s\0A\00", align 1

; Function Attrs: noinline nounwind uwtable
define dso_local i32 @main() #0 {
  %1 = alloca i32, align 4
  %2 = alloca %struct.student*, align 8
  %3 = alloca %struct.student*, align 8
  %4 = alloca %struct.student*, align 8
  %5 = alloca %struct.student*, align 8
  store i32 0, i32* %1, align 4
  %6 = call noalias i8* @malloc(i64 96) #3
  %7 = bitcast i8* %6 to %struct.student*
  store %struct.student* %7, %struct.student** %5, align 8
  %8 = load %struct.student*, %struct.student** %5, align 8
  %9 = getelementptr inbounds %struct.student, %struct.student* %8, i32 0, i32 7
  store %struct.student* null, %struct.student** %9, align 8
  %10 = load %struct.student*, %struct.student** %5, align 8
  %11 = getelementptr inbounds %struct.student, %struct.student* %10, i32 0, i32 6
  store %struct.student* null, %struct.student** %11, align 8
  %12 = load %struct.student*, %struct.student** %5, align 8
  store %struct.student* %12, %struct.student** %4, align 8
  br label %13

13:                                               ; preds = %47, %0
  %14 = call noalias i8* @malloc(i64 96) #3
  %15 = bitcast i8* %14 to %struct.student*
  store %struct.student* %15, %struct.student** %3, align 8
  %16 = load %struct.student*, %struct.student** %3, align 8
  %17 = load %struct.student*, %struct.student** %4, align 8
  %18 = getelementptr inbounds %struct.student, %struct.student* %17, i32 0, i32 6
  store %struct.student* %16, %struct.student** %18, align 8
  %19 = load %struct.student*, %struct.student** %4, align 8
  %20 = load %struct.student*, %struct.student** %3, align 8
  %21 = getelementptr inbounds %struct.student, %struct.student* %20, i32 0, i32 7
  store %struct.student* %19, %struct.student** %21, align 8
  %22 = load %struct.student*, %struct.student** %3, align 8
  %23 = getelementptr inbounds %struct.student, %struct.student* %22, i32 0, i32 0
  %24 = getelementptr inbounds [20 x i8], [20 x i8]* %23, i64 0, i64 0
  %25 = call i32 (i8*, ...) @__isoc99_scanf(i8* getelementptr inbounds ([3 x i8], [3 x i8]* @.str, i64 0, i64 0), i8* %24)
  %26 = load %struct.student*, %struct.student** %3, align 8
  %27 = getelementptr inbounds %struct.student, %struct.student* %26, i32 0, i32 0
  %28 = getelementptr inbounds [20 x i8], [20 x i8]* %27, i64 0, i64 0
  %29 = load i8, i8* %28, align 8
  %30 = sext i8 %29 to i32
  %31 = icmp eq i32 %30, 101
  br i1 %31, label %32, label %47

32:                                               ; preds = %13
  %33 = load %struct.student*, %struct.student** %3, align 8
  %34 = getelementptr inbounds %struct.student, %struct.student* %33, i32 0, i32 0
  %35 = getelementptr inbounds [20 x i8], [20 x i8]* %34, i64 0, i64 1
  %36 = load i8, i8* %35, align 1
  %37 = sext i8 %36 to i32
  %38 = icmp eq i32 %37, 110
  br i1 %38, label %39, label %47

39:                                               ; preds = %32
  %40 = load %struct.student*, %struct.student** %3, align 8
  %41 = getelementptr inbounds %struct.student, %struct.student* %40, i32 0, i32 0
  %42 = getelementptr inbounds [20 x i8], [20 x i8]* %41, i64 0, i64 2
  %43 = load i8, i8* %42, align 2
  %44 = sext i8 %43 to i32
  %45 = icmp eq i32 %44, 100
  br i1 %45, label %46, label %47

46:                                               ; preds = %39
  br label %62

47:                                               ; preds = %39, %32, %13
  %48 = load %struct.student*, %struct.student** %3, align 8
  %49 = getelementptr inbounds %struct.student, %struct.student* %48, i32 0, i32 1
  %50 = getelementptr inbounds [20 x i8], [20 x i8]* %49, i64 0, i64 0
  %51 = load %struct.student*, %struct.student** %3, align 8
  %52 = getelementptr inbounds %struct.student, %struct.student* %51, i32 0, i32 2
  %53 = load %struct.student*, %struct.student** %3, align 8
  %54 = getelementptr inbounds %struct.student, %struct.student* %53, i32 0, i32 3
  %55 = load %struct.student*, %struct.student** %3, align 8
  %56 = getelementptr inbounds %struct.student, %struct.student* %55, i32 0, i32 4
  %57 = load %struct.student*, %struct.student** %3, align 8
  %58 = getelementptr inbounds %struct.student, %struct.student* %57, i32 0, i32 5
  %59 = getelementptr inbounds [20 x i8], [20 x i8]* %58, i64 0, i64 0
  %60 = call i32 (i8*, ...) @__isoc99_scanf(i8* getelementptr inbounds ([16 x i8], [16 x i8]* @.str.1, i64 0, i64 0), i8* %50, i8* %52, i32* %54, double* %56, i8* %59)
  %61 = load %struct.student*, %struct.student** %3, align 8
  store %struct.student* %61, %struct.student** %4, align 8
  br label %13

62:                                               ; preds = %46
  %63 = load %struct.student*, %struct.student** %4, align 8
  %64 = getelementptr inbounds %struct.student, %struct.student* %63, i32 0, i32 6
  store %struct.student* null, %struct.student** %64, align 8
  %65 = load %struct.student*, %struct.student** %4, align 8
  store %struct.student* %65, %struct.student** %2, align 8
  br label %66

66:                                               ; preds = %124, %62
  %67 = load %struct.student*, %struct.student** %4, align 8
  %68 = getelementptr inbounds %struct.student, %struct.student* %67, i32 0, i32 7
  %69 = load %struct.student*, %struct.student** %68, align 8
  %70 = icmp ne %struct.student* %69, null
  br i1 %70, label %71, label %128

71:                                               ; preds = %66
  %72 = load %struct.student*, %struct.student** %4, align 8
  %73 = getelementptr inbounds %struct.student, %struct.student* %72, i32 0, i32 4
  %74 = load double, double* %73, align 8
  %75 = load %struct.student*, %struct.student** %4, align 8
  %76 = getelementptr inbounds %struct.student, %struct.student* %75, i32 0, i32 4
  %77 = load double, double* %76, align 8
  %78 = fptosi double %77 to i32
  %79 = sitofp i32 %78 to double
  %80 = fcmp oeq double %74, %79
  br i1 %80, label %81, label %103

81:                                               ; preds = %71
  %82 = load %struct.student*, %struct.student** %4, align 8
  %83 = getelementptr inbounds %struct.student, %struct.student* %82, i32 0, i32 0
  %84 = getelementptr inbounds [20 x i8], [20 x i8]* %83, i64 0, i64 0
  %85 = load %struct.student*, %struct.student** %4, align 8
  %86 = getelementptr inbounds %struct.student, %struct.student* %85, i32 0, i32 1
  %87 = getelementptr inbounds [20 x i8], [20 x i8]* %86, i64 0, i64 0
  %88 = load %struct.student*, %struct.student** %4, align 8
  %89 = getelementptr inbounds %struct.student, %struct.student* %88, i32 0, i32 2
  %90 = load i8, i8* %89, align 8
  %91 = sext i8 %90 to i32
  %92 = load %struct.student*, %struct.student** %4, align 8
  %93 = getelementptr inbounds %struct.student, %struct.student* %92, i32 0, i32 3
  %94 = load i32, i32* %93, align 4
  %95 = load %struct.student*, %struct.student** %4, align 8
  %96 = getelementptr inbounds %struct.student, %struct.student* %95, i32 0, i32 4
  %97 = load double, double* %96, align 8
  %98 = fptosi double %97 to i32
  %99 = load %struct.student*, %struct.student** %4, align 8
  %100 = getelementptr inbounds %struct.student, %struct.student* %99, i32 0, i32 5
  %101 = getelementptr inbounds [20 x i8], [20 x i8]* %100, i64 0, i64 0
  %102 = call i32 (i8*, ...) @printf(i8* getelementptr inbounds ([19 x i8], [19 x i8]* @.str.2, i64 0, i64 0), i8* %84, i8* %87, i32 %91, i32 %94, i32 %98, i8* %101)
  br label %124

103:                                              ; preds = %71
  %104 = load %struct.student*, %struct.student** %4, align 8
  %105 = getelementptr inbounds %struct.student, %struct.student* %104, i32 0, i32 0
  %106 = getelementptr inbounds [20 x i8], [20 x i8]* %105, i64 0, i64 0
  %107 = load %struct.student*, %struct.student** %4, align 8
  %108 = getelementptr inbounds %struct.student, %struct.student* %107, i32 0, i32 1
  %109 = getelementptr inbounds [20 x i8], [20 x i8]* %108, i64 0, i64 0
  %110 = load %struct.student*, %struct.student** %4, align 8
  %111 = getelementptr inbounds %struct.student, %struct.student* %110, i32 0, i32 2
  %112 = load i8, i8* %111, align 8
  %113 = sext i8 %112 to i32
  %114 = load %struct.student*, %struct.student** %4, align 8
  %115 = getelementptr inbounds %struct.student, %struct.student* %114, i32 0, i32 3
  %116 = load i32, i32* %115, align 4
  %117 = load %struct.student*, %struct.student** %4, align 8
  %118 = getelementptr inbounds %struct.student, %struct.student* %117, i32 0, i32 4
  %119 = load double, double* %118, align 8
  %120 = load %struct.student*, %struct.student** %4, align 8
  %121 = getelementptr inbounds %struct.student, %struct.student* %120, i32 0, i32 5
  %122 = getelementptr inbounds [20 x i8], [20 x i8]* %121, i64 0, i64 0
  %123 = call i32 (i8*, ...) @printf(i8* getelementptr inbounds ([22 x i8], [22 x i8]* @.str.3, i64 0, i64 0), i8* %106, i8* %109, i32 %113, i32 %116, double %119, i8* %122)
  br label %124

124:                                              ; preds = %103, %81
  %125 = load %struct.student*, %struct.student** %4, align 8
  %126 = getelementptr inbounds %struct.student, %struct.student* %125, i32 0, i32 7
  %127 = load %struct.student*, %struct.student** %126, align 8
  store %struct.student* %127, %struct.student** %4, align 8
  br label %66

128:                                              ; preds = %66
  %129 = load i32, i32* %1, align 4
  ret i32 %129
}

; Function Attrs: nounwind
declare dso_local noalias i8* @malloc(i64) #1

declare dso_local i32 @__isoc99_scanf(i8*, ...) #2

declare dso_local i32 @printf(i8*, ...) #2


!llvm.module.flags = !{!0}
!llvm.ident = !{!1}

!0 = !{i32 1, !"wchar_size", i32 4}
!1 = !{!"clang version 10.0.0-4ubuntu1 "}
